; Function Attrs: mustprogress nounwind uwtable
define dso_local void @_ZN5clang14JSONNodeDumper22VisitConstantArrayTypeEPKNS_17ConstantArrayTypeE(ptr noundef nonnull align 8 dereferenceable(1312) %0, ptr nocapture noundef readonly %1) local_unnamed_addr #0 align 2 {
  %3 = alloca %"class.llvm::json::Value", align 8
  %4 = getelementptr inbounds nuw i8, ptr %1, i64 16
  %5 = load i32, ptr %4, align 16
  %6 = and i32 %5, 33554432
  %.not.i = icmp eq i32 %6, 0
  %7 = getelementptr inbounds nuw i8, ptr %1, i64 40
  br i1 %.not.i, label %23, label %8

8:                                                ; preds = %2
  %9 = load ptr, ptr %7, align 8
  %10 = getelementptr inbounds nuw i8, ptr %9, i64 8
  %11 = load i32, ptr %10, align 8
  %12 = icmp ult i32 %11, 65
  br i1 %12, label %13, label %20

13:                                               ; preds = %8
  %14 = load i64, ptr %9, align 8
  %15 = icmp eq i32 %11, 0
  %16 = sub nuw nsw i32 64, %11
  %17 = zext nneg i32 %16 to i64
  %18 = shl i64 %14, %17
  %19 = ashr exact i64 %18, %17
  %.0.i.i.i = select i1 %15, i64 0, i64 %19
  br label %_ZNK5clang17ConstantArrayType11getSExtSizeEv.exit

20:                                               ; preds = %8
  %21 = load ptr, ptr %9, align 8
  %22 = load i64, ptr %21, align 8
  br label %_ZNK5clang17ConstantArrayType11getSExtSizeEv.exit

23:                                               ; preds = %2
  %24 = load i64, ptr %7, align 8
  br label %_ZNK5clang17ConstantArrayType11getSExtSizeEv.exit

_ZNK5clang17ConstantArrayType11getSExtSizeEv.exit: ; preds = %13, %20, %23
  %25 = phi i64 [ %24, %23 ], [ %.0.i.i.i, %13 ], [ %22, %20 ]
  %26 = getelementptr inbounds nuw i8, ptr %0, i64 1048
  store i16 3, ptr %3, align 8
  %27 = getelementptr inbounds nuw i8, ptr %3, i64 8
  store i64 %25, ptr %27, align 8
  tail call void @_ZN4llvm4json7OStream14attributeBeginENS_9StringRefE(ptr noundef nonnull align 8 dereferenceable(176) %26, ptr nonnull @.str.545, i64 4) #20
  call void @_ZN4llvm4json7OStream5valueERKNS0_5ValueE(ptr noundef nonnull align 8 dereferenceable(176) %26, ptr noundef nonnull align 8 dereferenceable(40) %3) #20
  call void @_ZN4llvm4json7OStream12attributeEndEv(ptr noundef nonnull align 8 dereferenceable(176) %26) #20
  call void @_ZN4llvm4json5Value7destroyEv(ptr noundef nonnull align 8 dereferenceable(40) %3) #20
  call void @_ZN5clang14JSONNodeDumper14VisitArrayTypeEPKNS_9ArrayTypeE(ptr noundef nonnull align 8 dereferenceable(1312) %0, ptr noundef nonnull %1)
  ret void
}